target datalayout = "e-m:e-p270:32:32-p271:32:32-p272:64:64-i64:64-i128:128-f80:128-n8:16:32:64-S128"
target triple = "x86_64-pc-linux-gnu"

@proto_register_rtls.ett = internal global [3 x ptr] [ptr @ett_rtls, ptr @ett_rtls_message, ptr @ett_rtls_nack_flags], align 16
@.str.132 = private unnamed_addr constant [26 x i8] c"Real Time Location System\00", align 1
@.str.133 = private unnamed_addr constant [5 x i8] c"RTLS\00", align 1
@.str.134 = private unnamed_addr constant [5 x i8] c"rtls\00", align 1
@proto_rtls = internal global i32 0, align 4
@rtls_handle = internal global ptr null, align 8

; Function Attrs: null_pointer_is_valid sspstrong uwtable
define hidden void @proto_register_rtls() #0 {
  %1 = alloca ptr, align 8
  call void @llvm.lifetime.start.p0(i64 8, ptr %1) #5
  %2 = call i32 @proto_register_protocol(ptr noundef @.str.132, ptr noundef @.str.133, ptr noundef @.str.134)
  store i32 %2, ptr @proto_rtls, align 4
  %3 = load i32, ptr @proto_rtls, align 4
  %4 = call ptr @register_dissector(ptr noundef @.str.134, ptr noundef @dissect_rtls, i32 noundef %3)
  store ptr %4, ptr @rtls_handle, align 8
  %5 = load i32, ptr @proto_rtls, align 4
  call void @proto_register_field_array(i32 noundef %5, ptr noundef @proto_register_rtls.hf, i32 noundef 62)
  call void @proto_register_subtree_array(ptr noundef @proto_register_rtls.ett, i32 noundef 3)
  %6 = load i32, ptr @proto_rtls, align 4
  %7 = call ptr @expert_register_protocol(i32 noundef %6)
  store ptr %7, ptr %1, align 8
  %8 = load ptr, ptr %1, align 8
  call void @expert_register_field_array(ptr noundef %8, ptr noundef @proto_register_rtls.ei, i32 noundef 1)
  call void @llvm.lifetime.end.p0(i64 8, ptr %1) #5
  ret void
}