; Function Attrs: null_pointer_is_valid sspstrong uwtable
define hidden void @proto_register_rtls() local_unnamed_addr #0 {
  %1 = tail call i32 @proto_register_protocol(ptr noundef nonnull @.str.132, ptr noundef nonnull @.str.133, ptr noundef nonnull @.str.134)
  store i32 %1, ptr @proto_rtls, align 4
  %2 = tail call ptr @register_dissector(ptr noundef nonnull @.str.134, ptr noundef nonnull @dissect_rtls, i32 noundef %1)
  store ptr %2, ptr @rtls_handle, align 8
  %3 = load i32, ptr @proto_rtls, align 4
  tail call void @proto_register_field_array(i32 noundef %3, ptr noundef nonnull @proto_register_rtls.hf, i32 noundef 62)
  tail call void @proto_register_subtree_array(ptr noundef nonnull @proto_register_rtls.ett, i32 noundef 3)
  %4 = load i32, ptr @proto_rtls, align 4
  %5 = tail call ptr @expert_register_protocol(i32 noundef %4)
  tail call void @expert_register_field_array(ptr noundef %5, ptr noundef nonnull @proto_register_rtls.ei, i32 noundef 1)
  ret void
}